target datalayout = "e-m:e-p270:32:32-p271:32:32-p272:64:64-i64:64-i128:128-f80:128-n8:16:32:64-S128"
target triple = "x86_64-pc-linux-gnu"

%struct._object = type { i64, ptr }

@.str.18 = private unnamed_addr constant [4 x i8] c"(i)\00", align 1

; Function Attrs: inlinehint mustprogress uwtable
define internal void @_ZL10_Py_DECREFP7_object(ptr noundef %0) #6 {
  %2 = alloca ptr, align 8
  store ptr %0, ptr %2, align 8, !tbaa !3
  %3 = load ptr, ptr %2, align 8, !tbaa !3
  %4 = getelementptr inbounds nuw %struct._object, ptr %3, i32 0, i32 0
  %5 = load i64, ptr %4, align 8, !tbaa !35
  %6 = add nsw i64 %5, -1
  store i64 %6, ptr %4, align 8, !tbaa !35
  %7 = icmp ne i64 %6, 0
  br i1 %7, label %8, label %9

8:                                                ; preds = %1
  br label %11

9:                                                ; preds = %1
  %10 = load ptr, ptr %2, align 8, !tbaa !3
  call void @_Py_Dealloc(ptr noundef %10)
  br label %11

11:                                               ; preds = %9, %8
  ret void
}

; Function Attrs: mustprogress uwtable
define internal void @_ZL8OnChangeiPv(i32 noundef %0, ptr noundef %1) #0 {
  %3 = alloca i32, align 4
  %4 = alloca ptr, align 8
  %5 = alloca i32, align 4
  %6 = alloca ptr, align 8
  %7 = alloca ptr, align 8
  %8 = alloca ptr, align 8
  store i32 %0, ptr %3, align 4, !tbaa !50
  store ptr %1, ptr %4, align 8, !tbaa !52
  call void @llvm.lifetime.start.p0(i64 4, ptr %5) #4
  %9 = call i32 @PyGILState_Ensure()
  store i32 %9, ptr %5, align 4, !tbaa !53
  call void @llvm.lifetime.start.p0(i64 8, ptr %6) #4
  %10 = load ptr, ptr %4, align 8, !tbaa !52
  store ptr %10, ptr %6, align 8, !tbaa !3
  call void @llvm.lifetime.start.p0(i64 8, ptr %7) #4
  %11 = load i32, ptr %3, align 4, !tbaa !50
  %12 = call ptr (ptr, ...) @Py_BuildValue(ptr noundef @.str.18, i32 noundef %11)
  store ptr %12, ptr %7, align 8, !tbaa !3
  call void @llvm.lifetime.start.p0(i64 8, ptr %8) #4
  %13 = load ptr, ptr %6, align 8, !tbaa !3
  %14 = call ptr @PyTuple_GetItem(ptr noundef %13, i64 noundef 0)
  %15 = load ptr, ptr %7, align 8, !tbaa !3
  %16 = call ptr @PyObject_Call(ptr noundef %14, ptr noundef %15, ptr noundef null)
  store ptr %16, ptr %8, align 8, !tbaa !3
  %17 = load ptr, ptr %8, align 8, !tbaa !3
  %18 = icmp eq ptr %17, null
  br i1 %18, label %19, label %20

19:                                               ; preds = %2
  call void @PyErr_Print()
  br label %22

20:                                               ; preds = %2
  %21 = load ptr, ptr %8, align 8, !tbaa !3
  call void @_ZL10_Py_DECREFP7_object(ptr noundef %21)
  br label %22

22:                                               ; preds = %20, %19
  %23 = load ptr, ptr %7, align 8, !tbaa !3
  call void @_ZL10_Py_DECREFP7_object(ptr noundef %23)
  %24 = load i32, ptr %5, align 4, !tbaa !53
  call void @PyGILState_Release(i32 noundef %24)
  call void @llvm.lifetime.end.p0(i64 8, ptr %8) #4
  call void @llvm.lifetime.end.p0(i64 8, ptr %7) #4
  call void @llvm.lifetime.end.p0(i64 8, ptr %6) #4
  call void @llvm.lifetime.end.p0(i64 4, ptr %5) #4
  ret void
}