; Function Attrs: mustprogress uwtable
define internal void @_ZL8OnChangeiPv(i32 noundef %0, ptr noundef %1) #0 {
  %3 = tail call i32 @PyGILState_Ensure()
  %4 = tail call ptr (ptr, ...) @Py_BuildValue(ptr noundef nonnull @.str.18, i32 noundef %0)
  %5 = tail call ptr @PyTuple_GetItem(ptr noundef %1, i64 noundef 0)
  %6 = tail call ptr @PyObject_Call(ptr noundef %5, ptr noundef %4, ptr noundef null)
  %7 = icmp eq ptr %6, null
  br i1 %7, label %8, label %9

8:                                                ; preds = %2
  tail call void @PyErr_Print()
  br label %_ZL10_Py_DECREFP7_object.exit

9:                                                ; preds = %2
  %10 = load i64, ptr %6, align 8, !tbaa !33
  %11 = add nsw i64 %10, -1
  store i64 %11, ptr %6, align 8, !tbaa !33
  %.not.i = icmp eq i64 %11, 0
  br i1 %.not.i, label %12, label %_ZL10_Py_DECREFP7_object.exit

12:                                               ; preds = %9
  tail call void @_Py_Dealloc(ptr noundef nonnull %6)
  br label %_ZL10_Py_DECREFP7_object.exit

_ZL10_Py_DECREFP7_object.exit:                    ; preds = %12, %9, %8
  %13 = load i64, ptr %4, align 8, !tbaa !33
  %14 = add nsw i64 %13, -1
  store i64 %14, ptr %4, align 8, !tbaa !33
  %.not.i7 = icmp eq i64 %14, 0
  br i1 %.not.i7, label %15, label %_ZL10_Py_DECREFP7_object.exit8

15:                                               ; preds = %_ZL10_Py_DECREFP7_object.exit
  tail call void @_Py_Dealloc(ptr noundef nonnull %4)
  br label %_ZL10_Py_DECREFP7_object.exit8

_ZL10_Py_DECREFP7_object.exit8:                   ; preds = %_ZL10_Py_DECREFP7_object.exit, %15
  tail call void @PyGILState_Release(i32 noundef %3)
  ret void
}